; Function Attrs: mustprogress nofree norecurse nosync nounwind willreturn memory(read, inaccessiblemem: none) uwtable
define noundef i32 @_ZNK10open_spiel9gin_rummy13GinRummyUtils14TotalCardValueERKSt6vectorIiSaIiEE(ptr nocapture noundef nonnull readonly align 8 dereferenceable(120) %0, ptr nocapture noundef nonnull readonly align 8 dereferenceable(24) %1) local_unnamed_addr #7 align 2 {
  %3 = load ptr, ptr %1, align 8
  %4 = getelementptr inbounds nuw i8, ptr %1, i64 8
  %5 = load ptr, ptr %4, align 8
  %.not9 = icmp eq ptr %3, %5
  br i1 %.not9, label %._crit_edge, label %.lr.ph

.lr.ph:                                           ; preds = %2
  %6 = load i32, ptr %0, align 8
  br label %7

7:                                                ; preds = %.lr.ph, %7
  %.011 = phi i32 [ 0, %.lr.ph ], [ %11, %7 ]
  %.sroa.06.010 = phi ptr [ %3, %.lr.ph ], [ %12, %7 ]
  %8 = load i32, ptr %.sroa.06.010, align 4
  %9 = srem i32 %8, %6
  %10 = tail call i32 @llvm.smin.i32(i32 %9, i32 9)
  %.sroa.speculated.i = add i32 %.011, 1
  %11 = add i32 %.sroa.speculated.i, %10
  %12 = getelementptr inbounds i8, ptr %.sroa.06.010, i64 4
  %.not = icmp eq ptr %12, %5
  br i1 %.not, label %._crit_edge, label %7

._crit_edge:                                      ; preds = %7, %2
  %.0.lcssa = phi i32 [ 0, %2 ], [ %11, %7 ]
  ret i32 %.0.lcssa
}